; ModuleID = 'source-C-CXX/12/1391.c'
source_filename = "source-C-CXX/12/1391.c"
target datalayout = "e-m:e-p270:32:32-p271:32:32-p272:64:64-i64:64-f80:128-n8:16:32:64-S128"
target triple = "x86_64-pc-linux-gnu"

@.str = private unnamed_addr constant [3 x i8] c"%d\00", align 1
@.str.1 = private unnamed_addr constant [4 x i8] c" %d\00", align 1

; Function Attrs: nofree nounwind sspstrong uwtable
define dso_local i32 @main() local_unnamed_addr #0 {
  %1 = alloca i32, align 4
  %2 = alloca [20000 x i32], align 16
  %3 = bitcast i32* %1 to i8*
  call void @llvm.lifetime.start.p0i8(i64 4, i8* nonnull %3) #4
  %4 = bitcast [20000 x i32]* %2 to i8*
  call void @llvm.lifetime.start.p0i8(i64 80000, i8* nonnull %4) #4
  %5 = call i32 (i8*, ...) @__isoc99_scanf(i8* getelementptr inbounds ([3 x i8], [3 x i8]* @.str, i64 0, i64 0), i32* nonnull %1)
  %6 = load i32, i32* %1, align 4, !tbaa !5
  %7 = icmp sgt i32 %6, 0
  br i1 %7, label %8, label %39

8:                                                ; preds = %0, %33
  %9 = phi i64 [ %35, %33 ], [ 0, %0 ]
  %10 = phi i32 [ %34, %33 ], [ 0, %0 ]
  %11 = getelementptr inbounds [20000 x i32], [20000 x i32]* %2, i64 0, i64 %9
  %12 = call i32 (i8*, ...) @__isoc99_scanf(i8* getelementptr inbounds ([3 x i8], [3 x i8]* @.str, i64 0, i64 0), i32* nonnull %11)
  %13 = icmp eq i64 %9, 0
  br i1 %13, label %24, label %14

14:                                               ; preds = %8
  %15 = load i32, i32* %11, align 4, !tbaa !5
  br label %16

16:                                               ; preds = %14, %21
  %17 = phi i64 [ 0, %14 ], [ %22, %21 ]
  %18 = getelementptr inbounds [20000 x i32], [20000 x i32]* %2, i64 0, i64 %17
  %19 = load i32, i32* %18, align 4, !tbaa !5
  %20 = icmp eq i32 %15, %19
  br i1 %20, label %24, label %21

21:                                               ; preds = %16
  %22 = add nuw nsw i64 %17, 1
  %23 = icmp eq i64 %22, %9
  br i1 %23, label %24, label %16, !llvm.loop !9

24:                                               ; preds = %21, %16, %8
  %25 = phi i64 [ 0, %8 ], [ %17, %16 ], [ %9, %21 ]
  %26 = and i64 %25, 4294967295
  %27 = icmp eq i64 %9, %26
  br i1 %27, label %28, label %33

28:                                               ; preds = %24
  %29 = icmp eq i32 %10, 0
  %30 = load i32, i32* %11, align 4, !tbaa !5
  %31 = select i1 %29, i8* getelementptr inbounds ([3 x i8], [3 x i8]* @.str, i64 0, i64 0), i8* getelementptr inbounds ([4 x i8], [4 x i8]* @.str.1, i64 0, i64 0)
  %32 = call i32 (i8*, ...) @printf(i8* nonnull dereferenceable(1) %31, i32 %30)
  br label %33

33:                                               ; preds = %28, %24
  %34 = phi i32 [ %10, %24 ], [ 1, %28 ]
  %35 = add nuw nsw i64 %9, 1
  %36 = load i32, i32* %1, align 4, !tbaa !5
  %37 = sext i32 %36 to i64
  %38 = icmp slt i64 %35, %37
  br i1 %38, label %8, label %39, !llvm.loop !11

39:                                               ; preds = %33, %0
  %40 = call i32 @putchar(i32 10)
  call void @llvm.lifetime.end.p0i8(i64 80000, i8* nonnull %4) #4
  call void @llvm.lifetime.end.p0i8(i64 4, i8* nonnull %3) #4
  ret i32 0
}

; Function Attrs: argmemonly mustprogress nofree nosync nounwind willreturn
declare void @llvm.lifetime.start.p0i8(i64 immarg, i8* nocapture) #1

; Function Attrs: nofree nounwind
declare noundef i32 @__isoc99_scanf(i8* nocapture noundef readonly, ...) local_unnamed_addr #2

; Function Attrs: nofree nounwind
declare noundef i32 @printf(i8* nocapture noundef readonly, ...) local_unnamed_addr #2

; Function Attrs: argmemonly mustprogress nofree nosync nounwind willreturn
declare void @llvm.lifetime.end.p0i8(i64 immarg, i8* nocapture) #1

; Function Attrs: nofree nounwind
declare noundef i32 @putchar(i32 noundef) local_unnamed_addr #3


!llvm.module.flags = !{!0, !1, !2, !3}
!llvm.ident = !{!4}

!0 = !{i32 1, !"wchar_size", i32 4}
!1 = !{i32 7, !"PIC Level", i32 2}
!2 = !{i32 7, !"PIE Level", i32 2}
!3 = !{i32 7, !"uwtable", i32 1}
!4 = !{!"clang version 13.0.0"}
!5 = !{!6, !6, i64 0}
!6 = !{!"int", !7, i64 0}
!7 = !{!"omnipotent char", !8, i64 0}
!8 = !{!"Simple C/C++ TBAA"}
!9 = distinct !{!9, !10}
!10 = !{!"llvm.loop.mustprogress"}
!11 = distinct !{!11, !10}
